; Function Attrs: uwtable
define void @_ZThn16_NK13FilterFractal10filterNameEi(ptr dead_on_unwind noalias nocapture writable writeonly sret(%class.QString) align 8 %0, ptr nocapture noundef readnone %1, i32 noundef %2) unnamed_addr #13 align 2 {
  tail call void @llvm.experimental.noalias.scope.decl(metadata !21)
  switch i32 %2, label %_ZNK13FilterFractal10filterNameEi.exit [
    i32 0, label %4
    i32 1, label %6
    i32 2, label %8
  ]

4:                                                ; preds = %3
  %5 = tail call noundef ptr @_ZN7QString16fromAscii_helperEPKci(ptr noundef nonnull @.str.11, i32 noundef 15), !noalias !21
  br label %_ZNK13FilterFractal10filterNameEi.exit

6:                                                ; preds = %3
  %7 = tail call noundef ptr @_ZN7QString16fromAscii_helperEPKci(ptr noundef nonnull @.str.12, i32 noundef 20), !noalias !21
  br label %_ZNK13FilterFractal10filterNameEi.exit

8:                                                ; preds = %3
  %9 = tail call noundef ptr @_ZN7QString16fromAscii_helperEPKci(ptr noundef nonnull @.str.13, i32 noundef 18), !noalias !21
  br label %_ZNK13FilterFractal10filterNameEi.exit

_ZNK13FilterFractal10filterNameEi.exit:           ; preds = %3, %4, %6, %8
  %_ZN10QArrayData11shared_nullE.sink.i = phi ptr [ %9, %8 ], [ %7, %6 ], [ %5, %4 ], [ @_ZN10QArrayData11shared_nullE, %3 ]
  store ptr %_ZN10QArrayData11shared_nullE.sink.i, ptr %0, align 8, !alias.scope !21
  ret void
}